target datalayout = "e-m:e-p270:32:32-p271:32:32-p272:64:64-i64:64-i128:128-f80:128-n8:16:32:64-S128"
target triple = "x86_64-pc-linux-gnu"

%"class.QtPrivate::RefCount" = type { %class.QBasicAtomicInteger }
%class.QBasicAtomicInteger = type { %"struct.std::atomic" }
%"struct.std::atomic" = type { %"struct.std::__atomic_base" }
%"struct.std::__atomic_base" = type { i32 }
%struct.QArrayData = type { %"class.QtPrivate::RefCount", i32, i32, i64 }
%class.QString = type { ptr }

@.str.46 = private unnamed_addr constant [4 x i8] c"MLP\00", align 1
@.str.48 = private unnamed_addr constant [4 x i8] c"MLB\00", align 1
@.str.50 = private unnamed_addr constant [4 x i8] c"ALN\00", align 1

; Function Attrs: mustprogress nounwind uwtable
define linkonce_odr noundef ptr @_ZN10QArrayData4dataEv(ptr noundef nonnull align 8 dereferenceable(24) %0) #4 comdat align 2 {
  %2 = alloca ptr, align 8
  store ptr %0, ptr %2, align 8
  %3 = load ptr, ptr %2, align 8
  %4 = getelementptr inbounds %struct.QArrayData, ptr %3, i32 0, i32 3
  %5 = load i64, ptr %4, align 8
  %6 = getelementptr inbounds i8, ptr %3, i64 %5
  ret ptr %6
}

; Function Attrs: mustprogress uwtable
define linkonce_odr noundef ptr @_ZN15QTypedArrayDataItE4dataEv(ptr noundef nonnull align 8 dereferenceable(24) %0) #5 comdat align 2 {
  %2 = alloca ptr, align 8
  store ptr %0, ptr %2, align 8
  %3 = load ptr, ptr %2, align 8
  %4 = call noundef ptr @_ZN10QArrayData4dataEv(ptr noundef nonnull align 8 dereferenceable(24) %3)
  ret ptr %4
}

; Function Attrs: mustprogress nounwind uwtable
define linkonce_odr noundef i32 @_ZNK7QString4sizeEv(ptr noundef nonnull align 8 dereferenceable(8) %0) #4 comdat align 2 {
  %2 = alloca ptr, align 8
  store ptr %0, ptr %2, align 8
  %3 = load ptr, ptr %2, align 8
  %4 = getelementptr inbounds %class.QString, ptr %3, i32 0, i32 0
  %5 = load ptr, ptr %4, align 8
  %6 = getelementptr inbounds %struct.QArrayData, ptr %5, i32 0, i32 1
  %7 = load i32, ptr %6, align 4
  ret i32 %7
}

; Function Attrs: mustprogress uwtable
define linkonce_odr noundef ptr @_ZNK7QString9constDataEv(ptr noundef nonnull align 8 dereferenceable(8) %0) #5 comdat align 2 {
  %2 = alloca ptr, align 8
  store ptr %0, ptr %2, align 8
  %3 = load ptr, ptr %2, align 8
  %4 = getelementptr inbounds %class.QString, ptr %3, i32 0, i32 0
  %5 = load ptr, ptr %4, align 8
  %6 = call noundef ptr @_ZN15QTypedArrayDataItE4dataEv(ptr noundef nonnull align 8 dereferenceable(24) %5)
  ret ptr %6
}

; Function Attrs: mustprogress uwtable
define linkonce_odr noundef zeroext i1 @_ZNK7QStringeqEPKc(ptr noundef nonnull align 8 dereferenceable(8) %0, ptr noundef %1) #5 comdat align 2 {
  %3 = alloca ptr, align 8
  %4 = alloca ptr, align 8
  store ptr %0, ptr %3, align 8
  store ptr %1, ptr %4, align 8
  %5 = load ptr, ptr %3, align 8
  %6 = call noundef ptr @_ZNK7QString9constDataEv(ptr noundef nonnull align 8 dereferenceable(8) %5)
  %7 = call noundef i32 @_ZNK7QString4sizeEv(ptr noundef nonnull align 8 dereferenceable(8) %5)
  %8 = load ptr, ptr %4, align 8
  %9 = call noundef i32 @_ZN7QString14compare_helperEPK5QChariPKciN2Qt15CaseSensitivityE(ptr noundef %6, i32 noundef %7, ptr noundef %8, i32 noundef -1, i32 noundef 1)
  %10 = icmp eq i32 %9, 0
  ret i1 %10
}

; Function Attrs: mustprogress uwtable
define linkonce_odr void @_ZNKR7QString7toUpperEv(ptr dead_on_unwind noalias writable sret(%class.QString) align 8 %0, ptr noundef nonnull align 8 dereferenceable(8) %1) #5 comdat align 2 {
  %3 = alloca ptr, align 8
  %4 = alloca ptr, align 8
  store ptr %0, ptr %3, align 8
  store ptr %1, ptr %4, align 8
  %5 = load ptr, ptr %4, align 8
  call void @_ZN7QString14toUpper_helperERKS_(ptr dead_on_unwind writable sret(%class.QString) align 8 %0, ptr noundef nonnull align 8 dereferenceable(8) %5)
  ret void
}

; Function Attrs: mustprogress uwtable
define void @_ZN16BaseMeshIOPlugin11saveProjectERK7QStringS2_RK12MeshDocumentbRKSt6vectorI15MLRenderingDataSaIS7_EEPFbiPKcE(ptr noundef nonnull align 8 dereferenceable(32) %0, ptr noundef nonnull align 8 dereferenceable(8) %1, ptr noundef nonnull align 8 dereferenceable(8) %2, ptr noundef nonnull align 8 dereferenceable(192) %3, i1 noundef zeroext %4, ptr noundef nonnull align 8 dereferenceable(24) %5, ptr noundef %6) unnamed_addr #5 align 2 personality ptr @__gxx_personality_v0 {
  %8 = alloca ptr, align 8
  %9 = alloca ptr, align 8
  %10 = alloca ptr, align 8
  %11 = alloca ptr, align 8
  %12 = alloca i8, align 1
  %13 = alloca ptr, align 8
  %14 = alloca ptr, align 8
  %15 = alloca %class.QString, align 8
  %16 = alloca ptr, align 8
  %17 = alloca i32, align 4
  %18 = alloca %class.QString, align 8
  %19 = alloca i1, align 1
  %20 = alloca %class.QString, align 8
  store ptr %0, ptr %8, align 8
  store ptr %1, ptr %9, align 8
  store ptr %2, ptr %10, align 8
  store ptr %3, ptr %11, align 8
  %21 = zext i1 %4 to i8
  store i8 %21, ptr %12, align 1
  store ptr %5, ptr %13, align 8
  store ptr %6, ptr %14, align 8
  %22 = load ptr, ptr %8, align 8
  %23 = load ptr, ptr %9, align 8
  call void @_ZNKR7QString7toUpperEv(ptr dead_on_unwind writable sret(%class.QString) align 8 %15, ptr noundef nonnull align 8 dereferenceable(8) %23)
  store i1 false, ptr %19, align 1
  %24 = invoke noundef zeroext i1 @_ZNK7QStringeqEPKc(ptr noundef nonnull align 8 dereferenceable(8) %15, ptr noundef @.str.46)
          to label %25 unwind label %43

25:                                               ; preds = %7
  br i1 %24, label %31, label %26

26:                                               ; preds = %25
  %27 = load ptr, ptr %9, align 8
  invoke void @_ZNKR7QString7toUpperEv(ptr dead_on_unwind writable sret(%class.QString) align 8 %18, ptr noundef nonnull align 8 dereferenceable(8) %27)
          to label %28 unwind label %43

28:                                               ; preds = %26
  store i1 true, ptr %19, align 1
  %29 = invoke noundef zeroext i1 @_ZNK7QStringeqEPKc(ptr noundef nonnull align 8 dereferenceable(8) %18, ptr noundef @.str.48)
          to label %30 unwind label %47

30:                                               ; preds = %28
  br label %31

31:                                               ; preds = %30, %25
  %32 = phi i1 [ true, %25 ], [ %29, %30 ]
  %33 = load i1, ptr %19, align 1
  br i1 %33, label %34, label %35

34:                                               ; preds = %31
  call void @_ZN7QStringD2Ev(ptr noundef nonnull align 8 dereferenceable(8) %18) #3
  br label %35

35:                                               ; preds = %34, %31
  call void @_ZN7QStringD2Ev(ptr noundef nonnull align 8 dereferenceable(8) %15) #3
  br i1 %32, label %36, label %55

36:                                               ; preds = %35
  %37 = load ptr, ptr %10, align 8
  %38 = load ptr, ptr %11, align 8
  %39 = load i8, ptr %12, align 1
  %40 = trunc i8 %39 to i1
  %41 = load ptr, ptr %13, align 8
  %42 = load ptr, ptr %14, align 8
  call void @_Z7saveMLPRK7QStringRK12MeshDocumentbRKSt6vectorI15MLRenderingDataSaIS6_EEPFbiPKcE(ptr noundef nonnull align 8 dereferenceable(8) %37, ptr noundef nonnull align 8 dereferenceable(192) %38, i1 noundef zeroext %40, ptr noundef nonnull align 8 dereferenceable(24) %41, ptr noundef %42)
  br label %73

43:                                               ; preds = %26, %7
  %44 = landingpad { ptr, i32 }
          cleanup
  %45 = extractvalue { ptr, i32 } %44, 0
  store ptr %45, ptr %16, align 8
  %46 = extractvalue { ptr, i32 } %44, 1
  store i32 %46, ptr %17, align 4
  br label %54

47:                                               ; preds = %28
  %48 = landingpad { ptr, i32 }
          cleanup
  %49 = extractvalue { ptr, i32 } %48, 0
  store ptr %49, ptr %16, align 8
  %50 = extractvalue { ptr, i32 } %48, 1
  store i32 %50, ptr %17, align 4
  %51 = load i1, ptr %19, align 1
  br i1 %51, label %52, label %53

52:                                               ; preds = %47
  call void @_ZN7QStringD2Ev(ptr noundef nonnull align 8 dereferenceable(8) %18) #3
  br label %53

53:                                               ; preds = %52, %47
  br label %54

54:                                               ; preds = %53, %43
  call void @_ZN7QStringD2Ev(ptr noundef nonnull align 8 dereferenceable(8) %15) #3
  br label %74

55:                                               ; preds = %35
  %56 = load ptr, ptr %9, align 8
  call void @_ZNKR7QString7toUpperEv(ptr dead_on_unwind writable sret(%class.QString) align 8 %20, ptr noundef nonnull align 8 dereferenceable(8) %56)
  %57 = invoke noundef zeroext i1 @_ZNK7QStringeqEPKc(ptr noundef nonnull align 8 dereferenceable(8) %20, ptr noundef @.str.50)
          to label %58 unwind label %65

58:                                               ; preds = %55
  call void @_ZN7QStringD2Ev(ptr noundef nonnull align 8 dereferenceable(8) %20) #3
  br i1 %57, label %59, label %69

59:                                               ; preds = %58
  %60 = load ptr, ptr %10, align 8
  %61 = load ptr, ptr %11, align 8
  %62 = load i8, ptr %12, align 1
  %63 = trunc i8 %62 to i1
  %64 = load ptr, ptr %14, align 8
  call void @_Z7saveALNRK7QStringRK12MeshDocumentbPFbiPKcE(ptr noundef nonnull align 8 dereferenceable(8) %60, ptr noundef nonnull align 8 dereferenceable(192) %61, i1 noundef zeroext %63, ptr noundef %64)
  br label %72

65:                                               ; preds = %55
  %66 = landingpad { ptr, i32 }
          cleanup
  %67 = extractvalue { ptr, i32 } %66, 0
  store ptr %67, ptr %16, align 8
  %68 = extractvalue { ptr, i32 } %66, 1
  store i32 %68, ptr %17, align 4
  call void @_ZN7QStringD2Ev(ptr noundef nonnull align 8 dereferenceable(8) %20) #3
  br label %74

69:                                               ; preds = %58
  %70 = getelementptr inbounds i8, ptr %22, i64 16
  %71 = load ptr, ptr %9, align 8
  call void @_ZNK8IOPlugin15wrongSaveFormatERK7QString(ptr noundef nonnull align 8 dereferenceable(16) %70, ptr noundef nonnull align 8 dereferenceable(8) %71)
  br label %72

72:                                               ; preds = %69, %59
  br label %73

73:                                               ; preds = %72, %36
  ret void

74:                                               ; preds = %65, %54
  %75 = load ptr, ptr %16, align 8
  %76 = load i32, ptr %17, align 4
  %77 = insertvalue { ptr, i32 } poison, ptr %75, 0
  %78 = insertvalue { ptr, i32 } %77, i32 %76, 1
  resume { ptr, i32 } %78
}