; Function Attrs: mustprogress uwtable
define void @_ZN16BaseMeshIOPlugin11saveProjectERK7QStringS2_RK12MeshDocumentbRKSt6vectorI15MLRenderingDataSaIS7_EEPFbiPKcE(ptr noundef nonnull align 8 dereferenceable(32) %0, ptr noundef nonnull align 8 dereferenceable(8) %1, ptr noundef nonnull align 8 dereferenceable(8) %2, ptr noundef nonnull align 8 dereferenceable(192) %3, i1 noundef zeroext %4, ptr noundef nonnull align 8 dereferenceable(24) %5, ptr noundef %6) unnamed_addr #9 align 2 personality ptr @__gxx_personality_v0 {
  %8 = alloca %class.QString, align 8
  %9 = alloca %class.QString, align 8
  %10 = alloca %class.QString, align 8
  call void @_ZN7QString14toUpper_helperERKS_(ptr dead_on_unwind nonnull writable sret(%class.QString) align 8 %8, ptr noundef nonnull align 8 dereferenceable(8) %1)
  %11 = load ptr, ptr %8, align 8
  %12 = getelementptr inbounds i8, ptr %11, i64 16
  %13 = load i64, ptr %12, align 8
  %14 = getelementptr inbounds i8, ptr %11, i64 %13
  %15 = getelementptr inbounds i8, ptr %11, i64 4
  %16 = load i32, ptr %15, align 4
  %17 = invoke noundef i32 @_ZN7QString14compare_helperEPK5QChariPKciN2Qt15CaseSensitivityE(ptr noundef nonnull %14, i32 noundef %16, ptr noundef nonnull @.str.46, i32 noundef -1, i32 noundef 1)
          to label %18 unwind label %40

18:                                               ; preds = %7
  %19 = icmp eq i32 %17, 0
  br i1 %19, label %_ZN7QStringD2Ev.exit, label %20

20:                                               ; preds = %18
  invoke void @_ZN7QString14toUpper_helperERKS_(ptr dead_on_unwind nonnull writable sret(%class.QString) align 8 %9, ptr noundef nonnull align 8 dereferenceable(8) %1)
          to label %_ZNKR7QString7toUpperEv.exit unwind label %40

_ZNKR7QString7toUpperEv.exit:                     ; preds = %20
  %21 = load ptr, ptr %9, align 8
  %22 = getelementptr inbounds i8, ptr %21, i64 16
  %23 = load i64, ptr %22, align 8
  %24 = getelementptr inbounds i8, ptr %21, i64 %23
  %25 = getelementptr inbounds i8, ptr %21, i64 4
  %26 = load i32, ptr %25, align 4
  %27 = invoke noundef i32 @_ZN7QString14compare_helperEPK5QChariPKciN2Qt15CaseSensitivityE(ptr noundef nonnull %24, i32 noundef %26, ptr noundef nonnull @.str.48, i32 noundef -1, i32 noundef 1)
          to label %28 unwind label %42

28:                                               ; preds = %_ZNKR7QString7toUpperEv.exit
  %29 = icmp eq i32 %27, 0
  %30 = load ptr, ptr %9, align 8
  %31 = load atomic i32, ptr %30 monotonic, align 4
  switch i32 %31, label %_ZN9QtPrivate8RefCount5derefEv.exit.i [
    i32 0, label %_ZN9QtPrivate8RefCount5derefEv.exit.thread2.i
    i32 -1, label %_ZN7QStringD2Ev.exit
  ]

_ZN9QtPrivate8RefCount5derefEv.exit.i:            ; preds = %28
  %32 = atomicrmw sub ptr %30, i32 1 seq_cst, align 4
  %.not.i = icmp eq i32 %32, 1
  br i1 %.not.i, label %_ZN9QtPrivate8RefCount5derefEv.exit._ZN9QtPrivate8RefCount5derefEv.exit.thread2_crit_edge.i, label %_ZN7QStringD2Ev.exit

_ZN9QtPrivate8RefCount5derefEv.exit._ZN9QtPrivate8RefCount5derefEv.exit.thread2_crit_edge.i: ; preds = %_ZN9QtPrivate8RefCount5derefEv.exit.i
  %.pre.i = load ptr, ptr %9, align 8
  br label %_ZN9QtPrivate8RefCount5derefEv.exit.thread2.i

_ZN9QtPrivate8RefCount5derefEv.exit.thread2.i:    ; preds = %_ZN9QtPrivate8RefCount5derefEv.exit._ZN9QtPrivate8RefCount5derefEv.exit.thread2_crit_edge.i, %28
  %33 = phi ptr [ %.pre.i, %_ZN9QtPrivate8RefCount5derefEv.exit._ZN9QtPrivate8RefCount5derefEv.exit.thread2_crit_edge.i ], [ %30, %28 ]
  call void @_ZN10QArrayData10deallocateEPS_mm(ptr noundef %33, i64 noundef 2, i64 noundef 8) #31
  br label %_ZN7QStringD2Ev.exit

_ZN7QStringD2Ev.exit:                             ; preds = %18, %_ZN9QtPrivate8RefCount5derefEv.exit.thread2.i, %_ZN9QtPrivate8RefCount5derefEv.exit.i, %28
  %34 = phi i1 [ %29, %28 ], [ %29, %_ZN9QtPrivate8RefCount5derefEv.exit.i ], [ %29, %_ZN9QtPrivate8RefCount5derefEv.exit.thread2.i ], [ true, %18 ]
  %35 = load ptr, ptr %8, align 8
  %36 = load atomic i32, ptr %35 monotonic, align 4
  switch i32 %36, label %_ZN9QtPrivate8RefCount5derefEv.exit.i25 [
    i32 0, label %_ZN9QtPrivate8RefCount5derefEv.exit.thread2.i24
    i32 -1, label %_ZN7QStringD2Ev.exit29
  ]

_ZN9QtPrivate8RefCount5derefEv.exit.i25:          ; preds = %_ZN7QStringD2Ev.exit
  %37 = atomicrmw sub ptr %35, i32 1 seq_cst, align 4
  %.not.i26 = icmp eq i32 %37, 1
  br i1 %.not.i26, label %_ZN9QtPrivate8RefCount5derefEv.exit._ZN9QtPrivate8RefCount5derefEv.exit.thread2_crit_edge.i27, label %_ZN7QStringD2Ev.exit29

_ZN9QtPrivate8RefCount5derefEv.exit._ZN9QtPrivate8RefCount5derefEv.exit.thread2_crit_edge.i27: ; preds = %_ZN9QtPrivate8RefCount5derefEv.exit.i25
  %.pre.i28 = load ptr, ptr %8, align 8
  br label %_ZN9QtPrivate8RefCount5derefEv.exit.thread2.i24

_ZN9QtPrivate8RefCount5derefEv.exit.thread2.i24:  ; preds = %_ZN9QtPrivate8RefCount5derefEv.exit._ZN9QtPrivate8RefCount5derefEv.exit.thread2_crit_edge.i27, %_ZN7QStringD2Ev.exit
  %38 = phi ptr [ %.pre.i28, %_ZN9QtPrivate8RefCount5derefEv.exit._ZN9QtPrivate8RefCount5derefEv.exit.thread2_crit_edge.i27 ], [ %35, %_ZN7QStringD2Ev.exit ]
  call void @_ZN10QArrayData10deallocateEPS_mm(ptr noundef %38, i64 noundef 2, i64 noundef 8) #31
  br label %_ZN7QStringD2Ev.exit29

_ZN7QStringD2Ev.exit29:                           ; preds = %_ZN7QStringD2Ev.exit, %_ZN9QtPrivate8RefCount5derefEv.exit.i25, %_ZN9QtPrivate8RefCount5derefEv.exit.thread2.i24
  br i1 %34, label %39, label %44

39:                                               ; preds = %_ZN7QStringD2Ev.exit29
  call void @_Z7saveMLPRK7QStringRK12MeshDocumentbRKSt6vectorI15MLRenderingDataSaIS6_EEPFbiPKcE(ptr noundef nonnull align 8 dereferenceable(8) %2, ptr noundef nonnull align 8 dereferenceable(192) %3, i1 noundef zeroext %4, ptr noundef nonnull align 8 dereferenceable(24) %5, ptr noundef %6)
  br label %63

40:                                               ; preds = %20, %7
  %41 = landingpad { ptr, i32 }
          cleanup
  br label %64

42:                                               ; preds = %_ZNKR7QString7toUpperEv.exit
  %43 = landingpad { ptr, i32 }
          cleanup
  call void @_ZN7QStringD2Ev(ptr noundef nonnull align 8 dereferenceable(8) %9) #31
  br label %64

44:                                               ; preds = %_ZN7QStringD2Ev.exit29
  call void @_ZN7QString14toUpper_helperERKS_(ptr dead_on_unwind nonnull writable sret(%class.QString) align 8 %10, ptr noundef nonnull align 8 dereferenceable(8) %1)
  %45 = load ptr, ptr %10, align 8
  %46 = getelementptr inbounds i8, ptr %45, i64 16
  %47 = load i64, ptr %46, align 8
  %48 = getelementptr inbounds i8, ptr %45, i64 %47
  %49 = getelementptr inbounds i8, ptr %45, i64 4
  %50 = load i32, ptr %49, align 4
  %51 = invoke noundef i32 @_ZN7QString14compare_helperEPK5QChariPKciN2Qt15CaseSensitivityE(ptr noundef nonnull %48, i32 noundef %50, ptr noundef nonnull @.str.50, i32 noundef -1, i32 noundef 1)
          to label %52 unwind label %59

52:                                               ; preds = %44
  %53 = icmp eq i32 %51, 0
  %54 = load ptr, ptr %10, align 8
  %55 = load atomic i32, ptr %54 monotonic, align 4
  switch i32 %55, label %_ZN9QtPrivate8RefCount5derefEv.exit.i32 [
    i32 0, label %_ZN9QtPrivate8RefCount5derefEv.exit.thread2.i31
    i32 -1, label %_ZN7QStringD2Ev.exit36
  ]

_ZN9QtPrivate8RefCount5derefEv.exit.i32:          ; preds = %52
  %56 = atomicrmw sub ptr %54, i32 1 seq_cst, align 4
  %.not.i33 = icmp eq i32 %56, 1
  br i1 %.not.i33, label %_ZN9QtPrivate8RefCount5derefEv.exit._ZN9QtPrivate8RefCount5derefEv.exit.thread2_crit_edge.i34, label %_ZN7QStringD2Ev.exit36

_ZN9QtPrivate8RefCount5derefEv.exit._ZN9QtPrivate8RefCount5derefEv.exit.thread2_crit_edge.i34: ; preds = %_ZN9QtPrivate8RefCount5derefEv.exit.i32
  %.pre.i35 = load ptr, ptr %10, align 8
  br label %_ZN9QtPrivate8RefCount5derefEv.exit.thread2.i31

_ZN9QtPrivate8RefCount5derefEv.exit.thread2.i31:  ; preds = %_ZN9QtPrivate8RefCount5derefEv.exit._ZN9QtPrivate8RefCount5derefEv.exit.thread2_crit_edge.i34, %52
  %57 = phi ptr [ %.pre.i35, %_ZN9QtPrivate8RefCount5derefEv.exit._ZN9QtPrivate8RefCount5derefEv.exit.thread2_crit_edge.i34 ], [ %54, %52 ]
  call void @_ZN10QArrayData10deallocateEPS_mm(ptr noundef %57, i64 noundef 2, i64 noundef 8) #31
  br label %_ZN7QStringD2Ev.exit36

_ZN7QStringD2Ev.exit36:                           ; preds = %52, %_ZN9QtPrivate8RefCount5derefEv.exit.i32, %_ZN9QtPrivate8RefCount5derefEv.exit.thread2.i31
  br i1 %53, label %58, label %61

58:                                               ; preds = %_ZN7QStringD2Ev.exit36
  call void @_Z7saveALNRK7QStringRK12MeshDocumentbPFbiPKcE(ptr noundef nonnull align 8 dereferenceable(8) %2, ptr noundef nonnull align 8 dereferenceable(192) %3, i1 noundef zeroext %4, ptr noundef %6)
  br label %63

59:                                               ; preds = %44
  %60 = landingpad { ptr, i32 }
          cleanup
  br label %64

61:                                               ; preds = %_ZN7QStringD2Ev.exit36
  %62 = getelementptr inbounds i8, ptr %0, i64 16
  call void @_ZNK8IOPlugin15wrongSaveFormatERK7QString(ptr noundef nonnull align 8 dereferenceable(16) %62, ptr noundef nonnull align 8 dereferenceable(8) %1)
  br label %63

63:                                               ; preds = %58, %61, %39
  ret void

64:                                               ; preds = %40, %42, %59
  %.sink = phi ptr [ %10, %59 ], [ %8, %42 ], [ %8, %40 ]
  %.pn21 = phi { ptr, i32 } [ %60, %59 ], [ %43, %42 ], [ %41, %40 ]
  call void @_ZN7QStringD2Ev(ptr noundef nonnull align 8 dereferenceable(8) %.sink) #31
  resume { ptr, i32 } %.pn21
}